target datalayout = "e-m:e-p270:32:32-p271:32:32-p272:64:64-i64:64-i128:128-f80:128-n8:16:32:64-S128"
target triple = "x86_64-pc-linux-gnu"

%struct.AVFilterContext = type { ptr, ptr, ptr, ptr, ptr, i32, ptr, ptr, i32, ptr, ptr, i32, i32, ptr, ptr, ptr, ptr, i32, ptr, i32, i32 }
%struct.AudioIIRContext = type { ptr, ptr, ptr, ptr, double, double, double, i32, i32, i32, i32, i32, i32, i32, i32, %struct.AVRational, ptr, ptr, i32, i32, ptr }
%struct.AVRational = type { i32, i32 }
%struct.AVFilterFormatsConfig = type { ptr, ptr, ptr, ptr, ptr }

@__const.query_formats.sample_fmts = private unnamed_addr constant [2 x i32] [i32 9, i32 -1], align 4
@query_formats.pix_fmts = internal constant [2 x i32] [i32 119, i32 -1], align 4

; Function Attrs: nounwind uwtable
define internal i32 @query_formats(ptr noundef %0, ptr noundef %1, ptr noundef %2) #1 {
  %4 = alloca i32, align 4
  %5 = alloca ptr, align 8
  %6 = alloca ptr, align 8
  %7 = alloca ptr, align 8
  %8 = alloca ptr, align 8
  %9 = alloca ptr, align 8
  %10 = alloca [2 x i32], align 4
  %11 = alloca i32, align 4
  %12 = alloca i32, align 4
  store ptr %0, ptr %5, align 8, !tbaa !4
  store ptr %1, ptr %6, align 8, !tbaa !52
  store ptr %2, ptr %7, align 8, !tbaa !52
  call void @llvm.lifetime.start.p0(i64 8, ptr %8) #12
  %13 = load ptr, ptr %5, align 8, !tbaa !4
  %14 = getelementptr inbounds nuw %struct.AVFilterContext, ptr %13, i32 0, i32 9
  %15 = load ptr, ptr %14, align 8, !tbaa !9
  store ptr %15, ptr %8, align 8, !tbaa !22
  call void @llvm.lifetime.start.p0(i64 8, ptr %9) #12
  call void @llvm.lifetime.start.p0(i64 8, ptr %10) #12
  call void @llvm.memcpy.p0.p0.i64(ptr align 4 %10, ptr align 4 @__const.query_formats.sample_fmts, i64 8, i1 false)
  call void @llvm.lifetime.start.p0(i64 4, ptr %11) #12
  %16 = load ptr, ptr %8, align 8, !tbaa !22
  %17 = getelementptr inbounds nuw %struct.AudioIIRContext, ptr %16, i32 0, i32 11
  %18 = load i32, ptr %17, align 8, !tbaa !46
  %19 = icmp ne i32 %18, 0
  br i1 %19, label %20, label %32

20:                                               ; preds = %3
  %21 = call ptr @ff_make_format_list(ptr noundef @query_formats.pix_fmts)
  store ptr %21, ptr %9, align 8, !tbaa !54
  %22 = load ptr, ptr %9, align 8, !tbaa !54
  %23 = load ptr, ptr %7, align 8, !tbaa !52
  %24 = getelementptr inbounds ptr, ptr %23, i64 1
  %25 = load ptr, ptr %24, align 8, !tbaa !56
  %26 = getelementptr inbounds nuw %struct.AVFilterFormatsConfig, ptr %25, i32 0, i32 0
  %27 = call i32 @ff_formats_ref(ptr noundef %22, ptr noundef %26)
  store i32 %27, ptr %11, align 4, !tbaa !43
  %28 = icmp slt i32 %27, 0
  br i1 %28, label %29, label %31

29:                                               ; preds = %20
  %30 = load i32, ptr %11, align 4, !tbaa !43
  store i32 %30, ptr %4, align 4
  store i32 1, ptr %12, align 4
  br label %47

31:                                               ; preds = %20
  br label %32

32:                                               ; preds = %31, %3
  %33 = load ptr, ptr %8, align 8, !tbaa !22
  %34 = getelementptr inbounds nuw %struct.AudioIIRContext, ptr %33, i32 0, i32 19
  %35 = load i32, ptr %34, align 4, !tbaa !33
  %36 = getelementptr inbounds [2 x i32], ptr %10, i64 0, i64 0
  store i32 %35, ptr %36, align 4, !tbaa !43
  %37 = load ptr, ptr %5, align 8, !tbaa !4
  %38 = load ptr, ptr %6, align 8, !tbaa !52
  %39 = load ptr, ptr %7, align 8, !tbaa !52
  %40 = getelementptr inbounds [2 x i32], ptr %10, i64 0, i64 0
  %41 = call i32 @ff_set_common_formats_from_list2(ptr noundef %37, ptr noundef %38, ptr noundef %39, ptr noundef %40)
  store i32 %41, ptr %11, align 4, !tbaa !43
  %42 = load i32, ptr %11, align 4, !tbaa !43
  %43 = icmp slt i32 %42, 0
  br i1 %43, label %44, label %46

44:                                               ; preds = %32
  %45 = load i32, ptr %11, align 4, !tbaa !43
  store i32 %45, ptr %4, align 4
  store i32 1, ptr %12, align 4
  br label %47

46:                                               ; preds = %32
  store i32 0, ptr %4, align 4
  store i32 1, ptr %12, align 4
  br label %47

47:                                               ; preds = %46, %44, %29
  call void @llvm.lifetime.end.p0(i64 4, ptr %11) #12
  call void @llvm.lifetime.end.p0(i64 8, ptr %10) #12
  call void @llvm.lifetime.end.p0(i64 8, ptr %9) #12
  call void @llvm.lifetime.end.p0(i64 8, ptr %8) #12
  %48 = load i32, ptr %4, align 4
  ret i32 %48
}