; Function Attrs: nounwind uwtable
define internal range(i32 -2147483648, 1) i32 @query_formats(ptr noundef %0, ptr noundef %1, ptr noundef %2) #1 {
  %4 = alloca [2 x i32], align 8
  %5 = getelementptr inbounds nuw i8, ptr %0, i64 72
  %6 = load ptr, ptr %5, align 8, !tbaa !4
  call void @llvm.lifetime.start.p0(i64 8, ptr nonnull %4) #14
  store i64 -4294967287, ptr %4, align 8
  %7 = getelementptr inbounds nuw i8, ptr %6, i64 72
  %8 = load i32, ptr %7, align 8, !tbaa !33
  %.not = icmp eq i32 %8, 0
  br i1 %.not, label %15, label %9

9:                                                ; preds = %3
  %10 = tail call ptr @ff_make_format_list(ptr noundef nonnull @query_formats.pix_fmts) #14
  %11 = getelementptr inbounds nuw i8, ptr %2, i64 8
  %12 = load ptr, ptr %11, align 8, !tbaa !38
  %13 = tail call i32 @ff_formats_ref(ptr noundef %10, ptr noundef %12) #14
  %14 = icmp slt i32 %13, 0
  br i1 %14, label %19, label %15

15:                                               ; preds = %9, %3
  %16 = getelementptr inbounds nuw i8, ptr %6, i64 116
  %17 = load i32, ptr %16, align 4, !tbaa !29
  store i32 %17, ptr %4, align 8, !tbaa !31
  %18 = call i32 @ff_set_common_formats_from_list2(ptr noundef nonnull %0, ptr noundef %1, ptr noundef %2, ptr noundef nonnull %4) #14
  %. = call i32 @llvm.smin.i32(i32 %18, i32 0)
  br label %19

19:                                               ; preds = %15, %9
  %.0 = phi i32 [ %13, %9 ], [ %., %15 ]
  call void @llvm.lifetime.end.p0(i64 8, ptr nonnull %4) #14
  ret i32 %.0
}